target datalayout = "e-m:e-p270:32:32-p271:32:32-p272:64:64-i64:64-i128:128-f80:128-n8:16:32:64-S128"
target triple = "x86_64-pc-linux-gnu"

%struct.ExprState = type { i32, i8, i8, i64, ptr, ptr, ptr, ptr, ptr, i32, i32, ptr, ptr, ptr, ptr, ptr, ptr, ptr }
%struct.ExprEvalStep = type { i64, ptr, ptr, %union.anon }
%union.anon = type { %struct.anon.23 }
%struct.anon.23 = type { ptr, ptr, i32, i32, ptr, ptr }
%struct.ExprContext = type { i32, ptr, ptr, ptr, ptr, ptr, ptr, ptr, ptr, ptr, i64, i8, i64, i8, ptr, ptr, ptr, ptr }
%struct.TupleTableSlot = type { i32, i16, i16, ptr, ptr, ptr, ptr, ptr, %struct.ItemPointerData, i32 }
%struct.ItemPointerData = type { %struct.BlockIdData, i16 }
%struct.BlockIdData = type { i16, i16 }
%struct.anon.2 = type { i32, i32 }

; Function Attrs: inlinehint nounwind uwtable
define internal void @slot_getsomeattrs(ptr noundef %0, i32 noundef %1) #2 {
  %3 = alloca ptr, align 8
  %4 = alloca i32, align 4
  store ptr %0, ptr %3, align 8
  store i32 %1, ptr %4, align 4
  %5 = load ptr, ptr %3, align 8
  %6 = getelementptr inbounds nuw %struct.TupleTableSlot, ptr %5, i32 0, i32 2
  %7 = load i16, ptr %6, align 2
  %8 = sext i16 %7 to i32
  %9 = load i32, ptr %4, align 4
  %10 = icmp slt i32 %8, %9
  br i1 %10, label %11, label %14

11:                                               ; preds = %2
  %12 = load ptr, ptr %3, align 8
  %13 = load i32, ptr %4, align 4
  call void @slot_getsomeattrs_int(ptr noundef %12, i32 noundef %13)
  br label %14

14:                                               ; preds = %11, %2
  ret void
}

; Function Attrs: inlinehint nounwind uwtable
define internal i64 @slot_getattr(ptr noundef %0, i32 noundef %1, ptr noundef %2) #2 {
  %4 = alloca ptr, align 8
  %5 = alloca i32, align 4
  %6 = alloca ptr, align 8
  store ptr %0, ptr %4, align 8
  store i32 %1, ptr %5, align 4
  store ptr %2, ptr %6, align 8
  %7 = load i32, ptr %5, align 4
  %8 = load ptr, ptr %4, align 8
  %9 = getelementptr inbounds nuw %struct.TupleTableSlot, ptr %8, i32 0, i32 2
  %10 = load i16, ptr %9, align 2
  %11 = sext i16 %10 to i32
  %12 = icmp sgt i32 %7, %11
  br i1 %12, label %13, label %16

13:                                               ; preds = %3
  %14 = load ptr, ptr %4, align 8
  %15 = load i32, ptr %5, align 4
  call void @slot_getsomeattrs(ptr noundef %14, i32 noundef %15)
  br label %16

16:                                               ; preds = %13, %3
  %17 = load ptr, ptr %4, align 8
  %18 = getelementptr inbounds nuw %struct.TupleTableSlot, ptr %17, i32 0, i32 6
  %19 = load ptr, ptr %18, align 8
  %20 = load i32, ptr %5, align 4
  %21 = sub i32 %20, 1
  %22 = sext i32 %21 to i64
  %23 = getelementptr inbounds i8, ptr %19, i64 %22
  %24 = load i8, ptr %23, align 1, !range !7, !noundef !8
  %25 = trunc i8 %24 to i1
  %26 = load ptr, ptr %6, align 8
  %27 = zext i1 %25 to i8
  store i8 %27, ptr %26, align 1
  %28 = load ptr, ptr %4, align 8
  %29 = getelementptr inbounds nuw %struct.TupleTableSlot, ptr %28, i32 0, i32 5
  %30 = load ptr, ptr %29, align 8
  %31 = load i32, ptr %5, align 4
  %32 = sub i32 %31, 1
  %33 = sext i32 %32 to i64
  %34 = getelementptr inbounds i64, ptr %30, i64 %33
  %35 = load i64, ptr %34, align 8
  ret i64 %35
}

; Function Attrs: nounwind uwtable
define internal void @CheckOpSlotCompatibility(ptr noundef %0, ptr noundef %1) #0 {
  %3 = alloca ptr, align 8
  %4 = alloca ptr, align 8
  store ptr %0, ptr %3, align 8
  store ptr %1, ptr %4, align 8
  ret void
}

; Function Attrs: alwaysinline nounwind uwtable
define internal i64 @ExecJustAssignVarImpl(ptr noundef %0, ptr noundef %1, ptr noundef %2) #9 {
  %4 = alloca ptr, align 8
  %5 = alloca ptr, align 8
  %6 = alloca ptr, align 8
  %7 = alloca ptr, align 8
  %8 = alloca i32, align 4
  %9 = alloca i32, align 4
  %10 = alloca ptr, align 8
  store ptr %0, ptr %4, align 8
  store ptr %1, ptr %5, align 8
  store ptr %2, ptr %6, align 8
  call void @llvm.lifetime.start.p0(i64 8, ptr %7) #11
  %11 = load ptr, ptr %4, align 8
  %12 = getelementptr inbounds nuw %struct.ExprState, ptr %11, i32 0, i32 5
  %13 = load ptr, ptr %12, align 8
  %14 = getelementptr inbounds %struct.ExprEvalStep, ptr %13, i64 1
  store ptr %14, ptr %7, align 8
  call void @llvm.lifetime.start.p0(i64 4, ptr %8) #11
  %15 = load ptr, ptr %7, align 8
  %16 = getelementptr inbounds nuw %struct.ExprEvalStep, ptr %15, i32 0, i32 3
  %17 = getelementptr inbounds nuw %struct.anon.2, ptr %16, i32 0, i32 1
  %18 = load i32, ptr %17, align 4
  %19 = add i32 %18, 1
  store i32 %19, ptr %8, align 4
  call void @llvm.lifetime.start.p0(i64 4, ptr %9) #11
  %20 = load ptr, ptr %7, align 8
  %21 = getelementptr inbounds nuw %struct.ExprEvalStep, ptr %20, i32 0, i32 3
  %22 = getelementptr inbounds nuw %struct.anon.2, ptr %21, i32 0, i32 0
  %23 = load i32, ptr %22, align 8
  store i32 %23, ptr %9, align 4
  call void @llvm.lifetime.start.p0(i64 8, ptr %10) #11
  %24 = load ptr, ptr %4, align 8
  %25 = getelementptr inbounds nuw %struct.ExprState, ptr %24, i32 0, i32 4
  %26 = load ptr, ptr %25, align 8
  store ptr %26, ptr %10, align 8
  %27 = load ptr, ptr %4, align 8
  %28 = getelementptr inbounds nuw %struct.ExprState, ptr %27, i32 0, i32 5
  %29 = load ptr, ptr %28, align 8
  %30 = getelementptr inbounds %struct.ExprEvalStep, ptr %29, i64 0
  %31 = load ptr, ptr %5, align 8
  call void @CheckOpSlotCompatibility(ptr noundef %30, ptr noundef %31)
  %32 = load ptr, ptr %5, align 8
  %33 = load i32, ptr %8, align 4
  %34 = load ptr, ptr %10, align 8
  %35 = getelementptr inbounds nuw %struct.TupleTableSlot, ptr %34, i32 0, i32 6
  %36 = load ptr, ptr %35, align 8
  %37 = load i32, ptr %9, align 4
  %38 = sext i32 %37 to i64
  %39 = getelementptr inbounds i8, ptr %36, i64 %38
  %40 = call i64 @slot_getattr(ptr noundef %32, i32 noundef %33, ptr noundef %39)
  %41 = load ptr, ptr %10, align 8
  %42 = getelementptr inbounds nuw %struct.TupleTableSlot, ptr %41, i32 0, i32 5
  %43 = load ptr, ptr %42, align 8
  %44 = load i32, ptr %9, align 4
  %45 = sext i32 %44 to i64
  %46 = getelementptr inbounds i64, ptr %43, i64 %45
  store i64 %40, ptr %46, align 8
  call void @llvm.lifetime.end.p0(i64 8, ptr %10) #11
  call void @llvm.lifetime.end.p0(i64 4, ptr %9) #11
  call void @llvm.lifetime.end.p0(i64 4, ptr %8) #11
  call void @llvm.lifetime.end.p0(i64 8, ptr %7) #11
  ret i64 0
}

; Function Attrs: nounwind uwtable
define internal i64 @ExecJustAssignInnerVar(ptr noundef %0, ptr noundef %1, ptr noundef %2) #0 {
  %4 = alloca ptr, align 8
  %5 = alloca ptr, align 8
  %6 = alloca ptr, align 8
  store ptr %0, ptr %4, align 8
  store ptr %1, ptr %5, align 8
  store ptr %2, ptr %6, align 8
  %7 = load ptr, ptr %4, align 8
  %8 = load ptr, ptr %5, align 8
  %9 = getelementptr inbounds nuw %struct.ExprContext, ptr %8, i32 0, i32 2
  %10 = load ptr, ptr %9, align 8
  %11 = load ptr, ptr %6, align 8
  %12 = call i64 @ExecJustAssignVarImpl(ptr noundef %7, ptr noundef %10, ptr noundef %11)
  ret i64 %12
}